target datalayout = "e-m:e-p270:32:32-p271:32:32-p272:64:64-i64:64-i128:128-f80:128-n8:16:32:64-S128"
target triple = "x86_64-pc-linux-gnu"

@proto_register_1722_acf_lin.ett = internal global [2 x ptr] [ptr @ett_1722_lin, ptr @ett_1722_lin_flags], align 16
@.str.307 = private unnamed_addr constant [8 x i8] c"ACF LIN\00", align 1
@.str.308 = private unnamed_addr constant [14 x i8] c"LIN over AVTP\00", align 1
@.str.309 = private unnamed_addr constant [8 x i8] c"acf-lin\00", align 1
@proto_1722_acf_lin = internal global i32 0, align 4
@.str.310 = private unnamed_addr constant [21 x i8] c"acf-lin.subdissector\00", align 1
@.str.311 = private unnamed_addr constant [29 x i8] c"ACF-LIN next level dissector\00", align 1
@avb1722_acf_lin_dissector_table = internal global ptr null, align 8
@avb1722_acf_lin_handle = internal global ptr null, align 8

; Function Attrs: null_pointer_is_valid sspstrong uwtable
define hidden void @proto_register_1722_acf_lin() #0 {
  %1 = alloca ptr, align 8
  call void @llvm.lifetime.start.p0(i64 8, ptr %1) #9
  %2 = call i32 @proto_register_protocol(ptr noundef @.str.307, ptr noundef @.str.308, ptr noundef @.str.309)
  store i32 %2, ptr @proto_1722_acf_lin, align 4
  %3 = load i32, ptr @proto_1722_acf_lin, align 4
  call void @proto_register_field_array(i32 noundef %3, ptr noundef @proto_register_1722_acf_lin.hf, i32 noundef 6)
  call void @proto_register_subtree_array(ptr noundef @proto_register_1722_acf_lin.ett, i32 noundef 2)
  %4 = load i32, ptr @proto_1722_acf_lin, align 4
  %5 = call ptr @expert_register_protocol(i32 noundef %4)
  store ptr %5, ptr %1, align 8
  %6 = load ptr, ptr %1, align 8
  call void @expert_register_field_array(ptr noundef %6, ptr noundef @proto_register_1722_acf_lin.ei, i32 noundef 2)
  %7 = load i32, ptr @proto_1722_acf_lin, align 4
  %8 = call ptr @register_decode_as_next_proto(i32 noundef %7, ptr noundef @.str.310, ptr noundef @.str.311, ptr noundef null)
  store ptr %8, ptr @avb1722_acf_lin_dissector_table, align 8
  %9 = load i32, ptr @proto_1722_acf_lin, align 4
  %10 = call ptr @register_dissector(ptr noundef @.str.309, ptr noundef @dissect_1722_acf_lin, i32 noundef %9)
  store ptr %10, ptr @avb1722_acf_lin_handle, align 8
  call void @llvm.lifetime.end.p0(i64 8, ptr %1) #9
  ret void
}