; Function Attrs: null_pointer_is_valid sspstrong uwtable
define hidden void @proto_register_1722_acf_lin() local_unnamed_addr #0 {
  %1 = tail call i32 @proto_register_protocol(ptr noundef nonnull @.str.307, ptr noundef nonnull @.str.308, ptr noundef nonnull @.str.309)
  store i32 %1, ptr @proto_1722_acf_lin, align 4
  tail call void @proto_register_field_array(i32 noundef %1, ptr noundef nonnull @proto_register_1722_acf_lin.hf, i32 noundef 6)
  tail call void @proto_register_subtree_array(ptr noundef nonnull @proto_register_1722_acf_lin.ett, i32 noundef 2)
  %2 = load i32, ptr @proto_1722_acf_lin, align 4
  %3 = tail call ptr @expert_register_protocol(i32 noundef %2)
  tail call void @expert_register_field_array(ptr noundef %3, ptr noundef nonnull @proto_register_1722_acf_lin.ei, i32 noundef 2)
  %4 = load i32, ptr @proto_1722_acf_lin, align 4
  %5 = tail call ptr @register_decode_as_next_proto(i32 noundef %4, ptr noundef nonnull @.str.310, ptr noundef nonnull @.str.311, ptr noundef null)
  store ptr %5, ptr @avb1722_acf_lin_dissector_table, align 8
  %6 = load i32, ptr @proto_1722_acf_lin, align 4
  %7 = tail call ptr @register_dissector(ptr noundef nonnull @.str.309, ptr noundef nonnull @dissect_1722_acf_lin, i32 noundef %6)
  store ptr %7, ptr @avb1722_acf_lin_handle, align 8
  ret void
}